target datalayout = "e-m:e-p270:32:32-p271:32:32-p272:64:64-i64:64-i128:128-f80:128-n8:16:32:64-S128"
target triple = "x86_64-pc-linux-gnu"

%struct.jpeg_decompress_struct = type { ptr, ptr, ptr, ptr, i32, i32, ptr, i32, i32, i32, i32, i32, i32, i32, double, i32, i32, i32, i32, i32, i32, i32, i32, i32, i32, i32, i32, i32, i32, i32, i32, i32, i32, ptr, i32, i32, i32, i32, i32, ptr, [4 x ptr], [4 x ptr], [4 x ptr], i32, ptr, i32, i32, [16 x i8], [16 x i8], [16 x i8], i32, i32, i8, i8, i8, i16, i16, i32, i8, i32, ptr, i32, i32, i32, i32, ptr, i32, [4 x ptr], i32, i32, i32, [10 x i32], i32, i32, i32, i32, i32, ptr, ptr, ptr, ptr, ptr, ptr, ptr, ptr, ptr, ptr, ptr }
%struct.jpeg_component_info = type { i32, i32, i32, i32, i32, i32, i32, i32, i32, i32, i32, i32, i32, i32, i32, i32, i32, i32, i32, ptr, ptr }

; Function Attrs: nounwind uwtable
define internal void @h2v1_fancy_upsample(ptr noundef %0, ptr noundef %1, ptr noundef %2, ptr noundef %3) #0 {
  %5 = alloca ptr, align 8
  %6 = alloca ptr, align 8
  %7 = alloca ptr, align 8
  %8 = alloca ptr, align 8
  %9 = alloca ptr, align 8
  %10 = alloca ptr, align 8
  %11 = alloca ptr, align 8
  %12 = alloca i32, align 4
  %13 = alloca i32, align 4
  %14 = alloca i32, align 4
  store ptr %0, ptr %5, align 8, !tbaa !3
  store ptr %1, ptr %6, align 8, !tbaa !45
  store ptr %2, ptr %7, align 8, !tbaa !68
  store ptr %3, ptr %8, align 8, !tbaa !74
  call void @llvm.lifetime.start.p0(i64 8, ptr %9) #3
  %15 = load ptr, ptr %8, align 8, !tbaa !74
  %16 = load ptr, ptr %15, align 8, !tbaa !68
  store ptr %16, ptr %9, align 8, !tbaa !68
  call void @llvm.lifetime.start.p0(i64 8, ptr %10) #3
  call void @llvm.lifetime.start.p0(i64 8, ptr %11) #3
  call void @llvm.lifetime.start.p0(i64 4, ptr %12) #3
  call void @llvm.lifetime.start.p0(i64 4, ptr %13) #3
  call void @llvm.lifetime.start.p0(i64 4, ptr %14) #3
  store i32 0, ptr %14, align 4, !tbaa !55
  br label %17

17:                                               ; preds = %112, %4
  %18 = load i32, ptr %14, align 4, !tbaa !55
  %19 = load ptr, ptr %5, align 8, !tbaa !3
  %20 = getelementptr inbounds nuw %struct.jpeg_decompress_struct, ptr %19, i32 0, i32 62
  %21 = load i32, ptr %20, align 4, !tbaa !63
  %22 = icmp slt i32 %18, %21
  br i1 %22, label %23, label %115

23:                                               ; preds = %17
  %24 = load ptr, ptr %7, align 8, !tbaa !68
  %25 = load i32, ptr %14, align 4, !tbaa !55
  %26 = sext i32 %25 to i64
  %27 = getelementptr inbounds ptr, ptr %24, i64 %26
  %28 = load ptr, ptr %27, align 8, !tbaa !81
  store ptr %28, ptr %10, align 8, !tbaa !81
  %29 = load ptr, ptr %9, align 8, !tbaa !68
  %30 = load i32, ptr %14, align 4, !tbaa !55
  %31 = sext i32 %30 to i64
  %32 = getelementptr inbounds ptr, ptr %29, i64 %31
  %33 = load ptr, ptr %32, align 8, !tbaa !81
  store ptr %33, ptr %11, align 8, !tbaa !81
  %34 = load ptr, ptr %10, align 8, !tbaa !81
  %35 = getelementptr inbounds nuw i8, ptr %34, i32 1
  store ptr %35, ptr %10, align 8, !tbaa !81
  %36 = load i8, ptr %34, align 1, !tbaa !39
  %37 = zext i8 %36 to i32
  store i32 %37, ptr %12, align 4, !tbaa !55
  %38 = load i32, ptr %12, align 4, !tbaa !55
  %39 = trunc i32 %38 to i8
  %40 = load ptr, ptr %11, align 8, !tbaa !81
  %41 = getelementptr inbounds nuw i8, ptr %40, i32 1
  store ptr %41, ptr %11, align 8, !tbaa !81
  store i8 %39, ptr %40, align 1, !tbaa !39
  %42 = load i32, ptr %12, align 4, !tbaa !55
  %43 = mul nsw i32 %42, 3
  %44 = load ptr, ptr %10, align 8, !tbaa !81
  %45 = getelementptr inbounds i8, ptr %44, i64 0
  %46 = load i8, ptr %45, align 1, !tbaa !39
  %47 = zext i8 %46 to i32
  %48 = add nsw i32 %43, %47
  %49 = add nsw i32 %48, 2
  %50 = ashr i32 %49, 2
  %51 = trunc i32 %50 to i8
  %52 = load ptr, ptr %11, align 8, !tbaa !81
  %53 = getelementptr inbounds nuw i8, ptr %52, i32 1
  store ptr %53, ptr %11, align 8, !tbaa !81
  store i8 %51, ptr %52, align 1, !tbaa !39
  %54 = load ptr, ptr %6, align 8, !tbaa !45
  %55 = getelementptr inbounds nuw %struct.jpeg_component_info, ptr %54, i32 0, i32 10
  %56 = load i32, ptr %55, align 8, !tbaa !65
  %57 = sub i32 %56, 2
  store i32 %57, ptr %13, align 4, !tbaa !55
  br label %58

58:                                               ; preds = %89, %23
  %59 = load i32, ptr %13, align 4, !tbaa !55
  %60 = icmp ugt i32 %59, 0
  br i1 %60, label %61, label %92

61:                                               ; preds = %58
  %62 = load ptr, ptr %10, align 8, !tbaa !81
  %63 = getelementptr inbounds nuw i8, ptr %62, i32 1
  store ptr %63, ptr %10, align 8, !tbaa !81
  %64 = load i8, ptr %62, align 1, !tbaa !39
  %65 = zext i8 %64 to i32
  %66 = mul nsw i32 %65, 3
  store i32 %66, ptr %12, align 4, !tbaa !55
  %67 = load i32, ptr %12, align 4, !tbaa !55
  %68 = load ptr, ptr %10, align 8, !tbaa !81
  %69 = getelementptr inbounds i8, ptr %68, i64 -2
  %70 = load i8, ptr %69, align 1, !tbaa !39
  %71 = zext i8 %70 to i32
  %72 = add nsw i32 %67, %71
  %73 = add nsw i32 %72, 1
  %74 = ashr i32 %73, 2
  %75 = trunc i32 %74 to i8
  %76 = load ptr, ptr %11, align 8, !tbaa !81
  %77 = getelementptr inbounds nuw i8, ptr %76, i32 1
  store ptr %77, ptr %11, align 8, !tbaa !81
  store i8 %75, ptr %76, align 1, !tbaa !39
  %78 = load i32, ptr %12, align 4, !tbaa !55
  %79 = load ptr, ptr %10, align 8, !tbaa !81
  %80 = getelementptr inbounds i8, ptr %79, i64 0
  %81 = load i8, ptr %80, align 1, !tbaa !39
  %82 = zext i8 %81 to i32
  %83 = add nsw i32 %78, %82
  %84 = add nsw i32 %83, 2
  %85 = ashr i32 %84, 2
  %86 = trunc i32 %85 to i8
  %87 = load ptr, ptr %11, align 8, !tbaa !81
  %88 = getelementptr inbounds nuw i8, ptr %87, i32 1
  store ptr %88, ptr %11, align 8, !tbaa !81
  store i8 %86, ptr %87, align 1, !tbaa !39
  br label %89

89:                                               ; preds = %61
  %90 = load i32, ptr %13, align 4, !tbaa !55
  %91 = add i32 %90, -1
  store i32 %91, ptr %13, align 4, !tbaa !55
  br label %58, !llvm.loop !82

92:                                               ; preds = %58
  %93 = load ptr, ptr %10, align 8, !tbaa !81
  %94 = load i8, ptr %93, align 1, !tbaa !39
  %95 = zext i8 %94 to i32
  store i32 %95, ptr %12, align 4, !tbaa !55
  %96 = load i32, ptr %12, align 4, !tbaa !55
  %97 = mul nsw i32 %96, 3
  %98 = load ptr, ptr %10, align 8, !tbaa !81
  %99 = getelementptr inbounds i8, ptr %98, i64 -1
  %100 = load i8, ptr %99, align 1, !tbaa !39
  %101 = zext i8 %100 to i32
  %102 = add nsw i32 %97, %101
  %103 = add nsw i32 %102, 1
  %104 = ashr i32 %103, 2
  %105 = trunc i32 %104 to i8
  %106 = load ptr, ptr %11, align 8, !tbaa !81
  %107 = getelementptr inbounds nuw i8, ptr %106, i32 1
  store ptr %107, ptr %11, align 8, !tbaa !81
  store i8 %105, ptr %106, align 1, !tbaa !39
  %108 = load i32, ptr %12, align 4, !tbaa !55
  %109 = trunc i32 %108 to i8
  %110 = load ptr, ptr %11, align 8, !tbaa !81
  %111 = getelementptr inbounds nuw i8, ptr %110, i32 1
  store ptr %111, ptr %11, align 8, !tbaa !81
  store i8 %109, ptr %110, align 1, !tbaa !39
  br label %112

112:                                              ; preds = %92
  %113 = load i32, ptr %14, align 4, !tbaa !55
  %114 = add nsw i32 %113, 1
  store i32 %114, ptr %14, align 4, !tbaa !55
  br label %17, !llvm.loop !83

115:                                              ; preds = %17
  call void @llvm.lifetime.end.p0(i64 4, ptr %14) #3
  call void @llvm.lifetime.end.p0(i64 4, ptr %13) #3
  call void @llvm.lifetime.end.p0(i64 4, ptr %12) #3
  call void @llvm.lifetime.end.p0(i64 8, ptr %11) #3
  call void @llvm.lifetime.end.p0(i64 8, ptr %10) #3
  call void @llvm.lifetime.end.p0(i64 8, ptr %9) #3
  ret void
}