; Function Attrs: nofree norecurse nosync nounwind memory(readwrite, inaccessiblemem: none) uwtable
define internal void @h2v1_fancy_upsample(ptr noundef readonly captures(none) %0, ptr noundef readonly captures(none) %1, ptr noundef readonly captures(none) %2, ptr noundef readonly captures(none) %3) #4 {
  %5 = load ptr, ptr %3, align 8, !tbaa !71
  %6 = getelementptr inbounds nuw i8, ptr %0, i64 412
  %7 = load i32, ptr %6, align 4, !tbaa !59
  %8 = icmp sgt i32 %7, 0
  br i1 %8, label %.lr.ph42, label %._crit_edge43

.lr.ph42:                                         ; preds = %4
  %9 = getelementptr inbounds nuw i8, ptr %1, i64 40
  br label %10

10:                                               ; preds = %.lr.ph42, %._crit_edge
  %indvars.iv = phi i64 [ 0, %.lr.ph42 ], [ %indvars.iv.next, %._crit_edge ]
  %11 = getelementptr inbounds nuw ptr, ptr %2, i64 %indvars.iv
  %12 = load ptr, ptr %11, align 8, !tbaa !76
  %13 = getelementptr inbounds nuw ptr, ptr %5, i64 %indvars.iv
  %14 = load ptr, ptr %13, align 8, !tbaa !76
  %15 = getelementptr inbounds nuw i8, ptr %12, i64 1
  %16 = load i8, ptr %12, align 1, !tbaa !37
  %17 = zext i8 %16 to i16
  %18 = getelementptr inbounds nuw i8, ptr %14, i64 1
  store i8 %16, ptr %14, align 1, !tbaa !37
  %19 = mul nuw nsw i16 %17, 3
  %20 = load i8, ptr %15, align 1, !tbaa !37
  %21 = zext i8 %20 to i16
  %22 = add nuw nsw i16 %19, 2
  %23 = add nuw nsw i16 %22, %21
  %24 = lshr i16 %23, 2
  %25 = trunc nuw i16 %24 to i8
  store i8 %25, ptr %18, align 1, !tbaa !37
  %26 = load i32, ptr %9, align 8, !tbaa !62
  %27 = add i32 %26, -2
  %.03032 = getelementptr inbounds nuw i8, ptr %14, i64 2
  %.not33 = icmp eq i32 %27, 0
  br i1 %.not33, label %._crit_edge, label %.lr.ph

.lr.ph:                                           ; preds = %10, %.lr.ph
  %.03037 = phi ptr [ %.030, %.lr.ph ], [ %.03032, %10 ]
  %.02936 = phi i32 [ %46, %.lr.ph ], [ %27, %10 ]
  %.pn35 = phi ptr [ %.03037, %.lr.ph ], [ %14, %10 ]
  %.03134 = phi ptr [ %28, %.lr.ph ], [ %15, %10 ]
  %28 = getelementptr inbounds nuw i8, ptr %.03134, i64 1
  %29 = load i8, ptr %.03134, align 1, !tbaa !37
  %30 = zext i8 %29 to i32
  %31 = mul nuw nsw i32 %30, 3
  %32 = getelementptr inbounds i8, ptr %.03134, i64 -1
  %33 = load i8, ptr %32, align 1, !tbaa !37
  %34 = zext i8 %33 to i32
  %35 = add nuw nsw i32 %34, 1
  %36 = add nuw nsw i32 %35, %31
  %37 = lshr i32 %36, 2
  %38 = trunc nuw i32 %37 to i8
  %39 = getelementptr inbounds nuw i8, ptr %.pn35, i64 3
  store i8 %38, ptr %.03037, align 1, !tbaa !37
  %40 = load i8, ptr %28, align 1, !tbaa !37
  %41 = zext i8 %40 to i32
  %42 = add nuw nsw i32 %31, 2
  %43 = add nuw nsw i32 %42, %41
  %44 = lshr i32 %43, 2
  %45 = trunc nuw i32 %44 to i8
  store i8 %45, ptr %39, align 1, !tbaa !37
  %46 = add i32 %.02936, -1
  %.030 = getelementptr inbounds nuw i8, ptr %.03037, i64 2
  %.not = icmp eq i32 %46, 0
  br i1 %.not, label %._crit_edge, label %.lr.ph, !llvm.loop !77

._crit_edge:                                      ; preds = %.lr.ph, %10
  %.031.lcssa = phi ptr [ %15, %10 ], [ %28, %.lr.ph ]
  %.pn.lcssa = phi ptr [ %14, %10 ], [ %.03037, %.lr.ph ]
  %.030.lcssa = phi ptr [ %.03032, %10 ], [ %.030, %.lr.ph ]
  %47 = load i8, ptr %.031.lcssa, align 1, !tbaa !37
  %48 = zext i8 %47 to i16
  %49 = mul nuw nsw i16 %48, 3
  %50 = getelementptr inbounds i8, ptr %.031.lcssa, i64 -1
  %51 = load i8, ptr %50, align 1, !tbaa !37
  %52 = zext i8 %51 to i16
  %53 = add nuw nsw i16 %52, 1
  %54 = add nuw nsw i16 %53, %49
  %55 = lshr i16 %54, 2
  %56 = trunc nuw i16 %55 to i8
  %57 = getelementptr inbounds nuw i8, ptr %.pn.lcssa, i64 3
  store i8 %56, ptr %.030.lcssa, align 1, !tbaa !37
  store i8 %47, ptr %57, align 1, !tbaa !37
  %indvars.iv.next = add nuw nsw i64 %indvars.iv, 1
  %58 = load i32, ptr %6, align 4, !tbaa !59
  %59 = sext i32 %58 to i64
  %60 = icmp slt i64 %indvars.iv.next, %59
  br i1 %60, label %10, label %._crit_edge43, !llvm.loop !78

._crit_edge43:                                    ; preds = %._crit_edge, %4
  ret void
}